; Function Attrs: mustprogress nounwind uwtable
define hidden void @_ZN6hermes7PhiInstC2ERKN4llvh11SmallVectorIPNS_5ValueELj8EEERKNS2_IPNS_10BasicBlockELj8EEE(ptr noundef nonnull align 8 dereferenceable(132) initializes((0, 16), (18, 22)) %this, ptr noundef nonnull readonly align 8 captures(none) dereferenceable(80) %values, ptr noundef nonnull readonly align 8 captures(none) dereferenceable(80) %blocks) unnamed_addr #0 align 2 {
entry:
  tail call void @llvm.memset.p0.i64(ptr noundef nonnull align 8 dereferenceable(132) %this, i8 0, i64 16, i1 false)
  %0 = getelementptr inbounds nuw i8, ptr %this, i64 16
  %valueType.i.i = getelementptr inbounds nuw i8, ptr %this, i64 18
  store i16 1023, ptr %valueType.i.i, align 2
  %numBitmask_.i.i.i = getelementptr inbounds nuw i8, ptr %this, i64 20
  store i16 7, ptr %numBitmask_.i.i.i, align 4
  %Users.i.i = getelementptr inbounds nuw i8, ptr %this, i64 24
  %add.ptr.i.i.i.i.i.i.i = getelementptr inbounds nuw i8, ptr %this, i64 40
  store ptr %add.ptr.i.i.i.i.i.i.i, ptr %Users.i.i, align 8
  %Size.i.i.i.i.i.i.i = getelementptr inbounds nuw i8, ptr %this, i64 32
  store i32 0, ptr %Size.i.i.i.i.i.i.i, align 8
  %Capacity2.i.i.i.i.i.i.i = getelementptr inbounds nuw i8, ptr %this, i64 36
  store i32 2, ptr %Capacity2.i.i.i.i.i.i.i, align 4
  store i8 33, ptr %0, align 8
  %Parent.i = getelementptr inbounds nuw i8, ptr %this, i64 56
  store ptr null, ptr %Parent.i, align 8
  %Operands.i = getelementptr inbounds nuw i8, ptr %this, i64 64
  %add.ptr.i.i.i.i.i.i = getelementptr inbounds nuw i8, ptr %this, i64 80
  store ptr %add.ptr.i.i.i.i.i.i, ptr %Operands.i, align 8
  %Size.i.i.i.i.i.i = getelementptr inbounds nuw i8, ptr %this, i64 72
  store i32 0, ptr %Size.i.i.i.i.i.i, align 8
  %Capacity2.i.i.i.i.i.i = getelementptr inbounds nuw i8, ptr %this, i64 76
  store i32 2, ptr %Capacity2.i.i.i.i.i.i, align 4
  %SourceLevelScope.i = getelementptr inbounds nuw i8, ptr %this, i64 112
  tail call void @llvm.memset.p0.i64(ptr noundef nonnull align 8 dereferenceable(20) %SourceLevelScope.i, i8 0, i64 20, i1 false)
  %Size.i = getelementptr inbounds nuw i8, ptr %values, i64 8
  %1 = load i32, ptr %Size.i, align 8
  %cmp5 = icmp sgt i32 %1, 0
  br i1 %cmp5, label %for.body.preheader, label %for.end

for.body.preheader:                               ; preds = %entry
  %wide.trip.count = zext nneg i32 %1 to i64
  br label %for.body

for.body:                                         ; preds = %for.body.preheader, %for.body
  %indvars.iv = phi i64 [ 0, %for.body.preheader ], [ %indvars.iv.next, %for.body ]
  %2 = load ptr, ptr %values, align 8
  %arrayidx.i10 = getelementptr inbounds nuw ptr, ptr %2, i64 %indvars.iv
  %3 = load ptr, ptr %arrayidx.i10, align 8
  tail call void @_ZN6hermes11Instruction11pushOperandEPNS_5ValueE(ptr noundef nonnull align 8 dereferenceable(132) %this, ptr noundef %3) #15
  %4 = load ptr, ptr %blocks, align 8
  %arrayidx.i = getelementptr inbounds nuw ptr, ptr %4, i64 %indvars.iv
  %5 = load ptr, ptr %arrayidx.i, align 8
  %6 = icmp eq ptr %5, null
  %add.ptr = getelementptr inbounds nuw i8, ptr %5, i64 16
  %spec.select = select i1 %6, ptr null, ptr %add.ptr
  tail call void @_ZN6hermes11Instruction11pushOperandEPNS_5ValueE(ptr noundef nonnull align 8 dereferenceable(132) %this, ptr noundef %spec.select) #15
  %indvars.iv.next = add nuw nsw i64 %indvars.iv, 1
  %exitcond.not = icmp eq i64 %indvars.iv.next, %wide.trip.count
  br i1 %exitcond.not, label %for.end, label %for.body, !llvm.loop !8

for.end:                                          ; preds = %for.body, %entry
  ret void
}